target datalayout = "e-m:e-p270:32:32-p271:32:32-p272:64:64-i64:64-i128:128-f80:128-n8:16:32:64-S128"
target triple = "x86_64-pc-linux-gnu"

%"class.google::protobuf::io::ZeroCopyInputStream" = type { ptr }
%"class.google::protobuf::TextFormat::Parser" = type <{ ptr, ptr, ptr, i8, i8, i8, i8, i8, i8, i8, i8, i32, [4 x i8] }>
%"class.google::protobuf::io::ArrayInputStream" = type { %"class.google::protobuf::io::ZeroCopyInputStream", ptr, i32, i32, i32, i32 }

; Function Attrs: mustprogress nounwind uwtable
define linkonce_odr hidden void @_ZN6google8protobuf2io19ZeroCopyInputStreamD2Ev(ptr noundef nonnull align 8 dereferenceable(8) %0) unnamed_addr #8 comdat align 2 {
  %2 = alloca ptr, align 8
  store ptr %0, ptr %2, align 8, !tbaa !245
  ret void
}

; Function Attrs: mustprogress nounwind uwtable
define linkonce_odr hidden void @_ZN6google8protobuf10TextFormat6Parser17SetRecursionLimitEi(ptr noundef nonnull align 8 dereferenceable(36) %0, i32 noundef %1) #8 comdat align 2 {
  %3 = alloca ptr, align 8
  %4 = alloca i32, align 4
  store ptr %0, ptr %3, align 8, !tbaa !273
  store i32 %1, ptr %4, align 4, !tbaa !8
  %5 = load ptr, ptr %3, align 8
  %6 = load i32, ptr %4, align 4, !tbaa !8
  %7 = getelementptr inbounds nuw %"class.google::protobuf::TextFormat::Parser", ptr %5, i32 0, i32 11
  store i32 %6, ptr %7, align 8, !tbaa !280
  ret void
}

; Function Attrs: mustprogress nounwind uwtable
define linkonce_odr hidden void @_ZN6google8protobuf10TextFormat6Parser17AllowUnknownFieldEb(ptr noundef nonnull align 8 dereferenceable(36) %0, i1 noundef zeroext %1) #8 comdat align 2 {
  %3 = alloca ptr, align 8
  %4 = alloca i8, align 1
  store ptr %0, ptr %3, align 8, !tbaa !273
  %5 = zext i1 %1 to i8
  store i8 %5, ptr %4, align 1, !tbaa !15
  %6 = load ptr, ptr %3, align 8
  %7 = load i8, ptr %4, align 1, !tbaa !15, !range !17, !noundef !18
  %8 = trunc i8 %7 to i1
  %9 = getelementptr inbounds nuw %"class.google::protobuf::TextFormat::Parser", ptr %6, i32 0, i32 5
  %10 = zext i1 %8 to i8
  store i8 %10, ptr %9, align 2, !tbaa !275
  ret void
}

; Function Attrs: mustprogress uwtable
define hidden noundef zeroext i1 @_ZN2cv3dnn23ReadProtoFromTextBufferEPKcmPN6google8protobuf7MessageE(ptr noundef %0, i64 noundef %1, ptr noundef %2) #4 personality ptr @__gxx_personality_v0 {
  %4 = alloca ptr, align 8
  %5 = alloca i64, align 8
  %6 = alloca ptr, align 8
  %7 = alloca %"class.google::protobuf::io::ArrayInputStream", align 8
  %8 = alloca %"class.google::protobuf::TextFormat::Parser", align 8
  %9 = alloca ptr, align 8
  %10 = alloca i32, align 4
  store ptr %0, ptr %4, align 8, !tbaa !74
  store i64 %1, ptr %5, align 8, !tbaa !284
  store ptr %2, ptr %6, align 8, !tbaa !247
  call void @llvm.lifetime.start.p0(i64 32, ptr %7) #3
  %11 = load ptr, ptr %4, align 8, !tbaa !74
  %12 = load i64, ptr %5, align 8, !tbaa !284
  %13 = trunc i64 %12 to i32
  call void @_ZN6google8protobuf2io16ArrayInputStreamC1EPKvii(ptr noundef nonnull align 8 dereferenceable(32) %7, ptr noundef %11, i32 noundef %13, i32 noundef -1)
  call void @llvm.lifetime.start.p0(i64 40, ptr %8) #3
  invoke void @_ZN6google8protobuf10TextFormat6ParserC1Ev(ptr noundef nonnull align 8 dereferenceable(36) %8)
          to label %14 unwind label %20

14:                                               ; preds = %3
  invoke void @_ZN6google8protobuf10TextFormat6Parser17AllowUnknownFieldEb(ptr noundef nonnull align 8 dereferenceable(36) %8, i1 noundef zeroext true)
          to label %15 unwind label %24

15:                                               ; preds = %14
  invoke void @_ZN6google8protobuf10TextFormat6Parser17SetRecursionLimitEi(ptr noundef nonnull align 8 dereferenceable(36) %8, i32 noundef 1000)
          to label %16 unwind label %24

16:                                               ; preds = %15
  %17 = load ptr, ptr %6, align 8, !tbaa !247
  %18 = invoke noundef zeroext i1 @_ZN6google8protobuf10TextFormat6Parser5ParseEPNS0_2io19ZeroCopyInputStreamEPNS0_7MessageE(ptr noundef nonnull align 8 dereferenceable(36) %8, ptr noundef %7, ptr noundef %17)
          to label %19 unwind label %24

19:                                               ; preds = %16
  call void @_ZN6google8protobuf10TextFormat6ParserD1Ev(ptr noundef nonnull align 8 dereferenceable(36) %8) #3
  call void @llvm.lifetime.end.p0(i64 40, ptr %8) #3
  call void @_ZN6google8protobuf2io19ZeroCopyInputStreamD2Ev(ptr noundef nonnull align 8 dereferenceable(32) %7) #3
  call void @llvm.lifetime.end.p0(i64 32, ptr %7) #3
  ret i1 %18

20:                                               ; preds = %3
  %21 = landingpad { ptr, i32 }
          cleanup
  %22 = extractvalue { ptr, i32 } %21, 0
  store ptr %22, ptr %9, align 8
  %23 = extractvalue { ptr, i32 } %21, 1
  store i32 %23, ptr %10, align 4
  br label %28

24:                                               ; preds = %16, %15, %14
  %25 = landingpad { ptr, i32 }
          cleanup
  %26 = extractvalue { ptr, i32 } %25, 0
  store ptr %26, ptr %9, align 8
  %27 = extractvalue { ptr, i32 } %25, 1
  store i32 %27, ptr %10, align 4
  call void @_ZN6google8protobuf10TextFormat6ParserD1Ev(ptr noundef nonnull align 8 dereferenceable(36) %8) #3
  br label %28

28:                                               ; preds = %24, %20
  call void @llvm.lifetime.end.p0(i64 40, ptr %8) #3
  call void @_ZN6google8protobuf2io19ZeroCopyInputStreamD2Ev(ptr noundef nonnull align 8 dereferenceable(32) %7) #3
  call void @llvm.lifetime.end.p0(i64 32, ptr %7) #3
  br label %29

29:                                               ; preds = %28
  %30 = load ptr, ptr %9, align 8
  %31 = load i32, ptr %10, align 4
  %32 = insertvalue { ptr, i32 } poison, ptr %30, 0
  %33 = insertvalue { ptr, i32 } %32, i32 %31, 1
  resume { ptr, i32 } %33
}