; Function Attrs: mustprogress uwtable
define hidden noundef zeroext i1 @_ZN2cv3dnn23ReadProtoFromTextBufferEPKcmPN6google8protobuf7MessageE(ptr noundef %0, i64 noundef %1, ptr noundef %2) local_unnamed_addr #7 personality ptr @__gxx_personality_v0 {
  %4 = alloca %"class.google::protobuf::io::ArrayInputStream", align 8
  %5 = alloca %"class.google::protobuf::TextFormat::Parser", align 8
  call void @llvm.lifetime.start.p0(i64 32, ptr nonnull %4) #23
  %6 = trunc i64 %1 to i32
  call void @_ZN6google8protobuf2io16ArrayInputStreamC1EPKvii(ptr noundef nonnull align 8 dereferenceable(32) %4, ptr noundef %0, i32 noundef %6, i32 noundef -1)
  call void @llvm.lifetime.start.p0(i64 40, ptr nonnull %5) #23
  call void @_ZN6google8protobuf10TextFormat6ParserC1Ev(ptr noundef nonnull align 8 dereferenceable(36) %5)
  %7 = getelementptr inbounds nuw i8, ptr %5, i64 26
  store i8 1, ptr %7, align 2, !tbaa !444
  %8 = getelementptr inbounds nuw i8, ptr %5, i64 32
  store i32 1000, ptr %8, align 8, !tbaa !449
  %9 = invoke noundef zeroext i1 @_ZN6google8protobuf10TextFormat6Parser5ParseEPNS0_2io19ZeroCopyInputStreamEPNS0_7MessageE(ptr noundef nonnull align 8 dereferenceable(36) %5, ptr noundef nonnull %4, ptr noundef %2)
          to label %10 unwind label %11

10:                                               ; preds = %3
  call void @_ZN6google8protobuf10TextFormat6ParserD1Ev(ptr noundef nonnull align 8 dereferenceable(36) %5) #23
  call void @llvm.lifetime.end.p0(i64 40, ptr nonnull %5) #23
  call void @llvm.lifetime.end.p0(i64 32, ptr nonnull %4) #23
  ret i1 %9

11:                                               ; preds = %3
  %12 = landingpad { ptr, i32 }
          cleanup
  call void @_ZN6google8protobuf10TextFormat6ParserD1Ev(ptr noundef nonnull align 8 dereferenceable(36) %5) #23
  call void @llvm.lifetime.end.p0(i64 40, ptr nonnull %5) #23
  call void @llvm.lifetime.end.p0(i64 32, ptr nonnull %4) #23
  resume { ptr, i32 } %12
}